target datalayout = "e-m:e-p270:32:32-p271:32:32-p272:64:64-i64:64-i128:128-f80:128-n8:16:32:64-S128"
target triple = "x86_64-pc-linux-gnu"

%struct.nstime_t = type { i64, i32 }
%struct.ncp_req_hash_value = type { ptr, ptr, i32, %struct.nstime_t, i16, i32, i32, i8, i8, [256 x i8], i8, i32, i32, i16, i16, i32 }

@hf_ncp_copyright = internal global i32 0, align 4
@hf_ncp_file_name_12 = internal global i32 0, align 4
@hf_ncp_name12 = internal global i32 0, align 4

; Function Attrs: null_pointer_is_valid sspstrong uwtable
define internal void @dissect_ncp_123_11_reply(ptr noundef %0, ptr noundef %1, ptr noundef %2) #0 {
  %4 = alloca ptr, align 8
  %5 = alloca ptr, align 8
  %6 = alloca ptr, align 8
  %7 = alloca i32, align 4
  %8 = alloca i32, align 4
  store ptr %0, ptr %4, align 8
  store volatile ptr %1, ptr %5, align 8
  store ptr %2, ptr %6, align 8
  call void @llvm.lifetime.start.p0(i64 4, ptr %7) #13
  call void @llvm.lifetime.start.p0(i64 4, ptr %8) #13
  store i32 76, ptr %8, align 4
  %9 = load ptr, ptr %6, align 8
  %10 = getelementptr inbounds nuw %struct.ncp_req_hash_value, ptr %9, i32 0, i32 4
  %11 = load i16, ptr %10, align 8
  %12 = zext i16 %11 to i32
  %13 = icmp eq i32 %12, 7
  br i1 %13, label %14, label %17

14:                                               ; preds = %3
  %15 = load i32, ptr %8, align 4
  %16 = add i32 %15, 8
  store i32 %16, ptr %8, align 4
  br label %17

17:                                               ; preds = %14, %3
  %18 = load ptr, ptr %4, align 8
  %19 = load i32, ptr %8, align 4
  %20 = call zeroext i8 @tvb_get_uint8(ptr noundef %18, i32 noundef %19)
  %21 = zext i8 %20 to i32
  store i32 %21, ptr %7, align 4
  %22 = load volatile ptr, ptr %5, align 8
  %23 = load i32, ptr @hf_ncp_file_name_12, align 4
  %24 = load ptr, ptr %4, align 8
  %25 = load i32, ptr %8, align 4
  %26 = add i32 %25, 1
  %27 = load i32, ptr %7, align 4
  %28 = call ptr @proto_tree_add_item(ptr noundef %22, i32 noundef %23, ptr noundef %24, i32 noundef %26, i32 noundef %27, i32 noundef 0)
  %29 = load i32, ptr %7, align 4
  %30 = add i32 %29, 1
  %31 = load i32, ptr %8, align 4
  %32 = add i32 %31, %30
  store i32 %32, ptr %8, align 4
  %33 = load ptr, ptr %4, align 8
  %34 = load i32, ptr %8, align 4
  %35 = call zeroext i8 @tvb_get_uint8(ptr noundef %33, i32 noundef %34)
  %36 = zext i8 %35 to i32
  store i32 %36, ptr %7, align 4
  %37 = load volatile ptr, ptr %5, align 8
  %38 = load i32, ptr @hf_ncp_name12, align 4
  %39 = load ptr, ptr %4, align 8
  %40 = load i32, ptr %8, align 4
  %41 = add i32 %40, 1
  %42 = load i32, ptr %7, align 4
  %43 = call ptr @proto_tree_add_item(ptr noundef %37, i32 noundef %38, ptr noundef %39, i32 noundef %41, i32 noundef %42, i32 noundef 0)
  %44 = load i32, ptr %7, align 4
  %45 = add i32 %44, 1
  %46 = load i32, ptr %8, align 4
  %47 = add i32 %46, %45
  store i32 %47, ptr %8, align 4
  %48 = load ptr, ptr %4, align 8
  %49 = load i32, ptr %8, align 4
  %50 = call zeroext i8 @tvb_get_uint8(ptr noundef %48, i32 noundef %49)
  %51 = zext i8 %50 to i32
  store i32 %51, ptr %7, align 4
  %52 = load volatile ptr, ptr %5, align 8
  %53 = load i32, ptr @hf_ncp_copyright, align 4
  %54 = load ptr, ptr %4, align 8
  %55 = load i32, ptr %8, align 4
  %56 = add i32 %55, 1
  %57 = load i32, ptr %7, align 4
  %58 = call ptr @proto_tree_add_item(ptr noundef %52, i32 noundef %53, ptr noundef %54, i32 noundef %56, i32 noundef %57, i32 noundef 0)
  call void @llvm.lifetime.end.p0(i64 4, ptr %8) #13
  call void @llvm.lifetime.end.p0(i64 4, ptr %7) #13
  ret void
}