; Function Attrs: null_pointer_is_valid sspstrong uwtable
define internal fastcc void @dissect_ncp_123_11_reply(ptr noundef %0, ptr noundef nonnull %1, ptr noundef nonnull readonly captures(none) %2) unnamed_addr #0 {
  %4 = alloca ptr, align 8
  store volatile ptr %1, ptr %4, align 8
  %5 = getelementptr inbounds nuw i8, ptr %2, i64 40
  %6 = load i16, ptr %5, align 8
  %7 = icmp eq i16 %6, 7
  %spec.select = select i1 %7, i32 84, i32 76
  %8 = tail call zeroext i8 @tvb_get_uint8(ptr noundef %0, i32 noundef %spec.select)
  %9 = zext i8 %8 to i32
  %.0..0..0..0.14 = load volatile ptr, ptr %4, align 8
  %10 = load i32, ptr @hf_ncp_file_name_12, align 4
  %11 = or disjoint i32 %spec.select, 1
  %12 = tail call ptr @proto_tree_add_item(ptr noundef %.0..0..0..0.14, i32 noundef %10, ptr noundef %0, i32 noundef %11, i32 noundef %9, i32 noundef 0)
  %13 = add nuw nsw i32 %9, 1
  %14 = add nuw nsw i32 %13, %spec.select
  %15 = tail call zeroext i8 @tvb_get_uint8(ptr noundef %0, i32 noundef %14)
  %16 = zext i8 %15 to i32
  %.0..0..0..0.15 = load volatile ptr, ptr %4, align 8
  %17 = load i32, ptr @hf_ncp_name12, align 4
  %18 = add nuw nsw i32 %14, 1
  %19 = tail call ptr @proto_tree_add_item(ptr noundef %.0..0..0..0.15, i32 noundef %17, ptr noundef %0, i32 noundef %18, i32 noundef %16, i32 noundef 0)
  %20 = add nuw nsw i32 %18, %16
  %21 = tail call zeroext i8 @tvb_get_uint8(ptr noundef %0, i32 noundef %20)
  %22 = zext i8 %21 to i32
  %.0..0..0..0.16 = load volatile ptr, ptr %4, align 8
  %23 = load i32, ptr @hf_ncp_copyright, align 4
  %24 = add nuw nsw i32 %20, 1
  %25 = tail call ptr @proto_tree_add_item(ptr noundef %.0..0..0..0.16, i32 noundef %23, ptr noundef %0, i32 noundef %24, i32 noundef %22, i32 noundef 0)
  ret void
}